target datalayout = "e-m:e-p270:32:32-p271:32:32-p272:64:64-i64:64-i128:128-f80:128-n8:16:32:64-S128"
target triple = "x86_64-pc-linux-gnu"

%struct.ossl_namemap_st = type { i8, ptr, ptr, ptr, i32 }

; Function Attrs: nounwind uwtable
define i32 @ossl_namemap_empty(ptr noundef %0) #0 {
  %2 = alloca ptr, align 8
  %3 = alloca i32, align 4
  store ptr %0, ptr %2, align 8, !tbaa !8
  %4 = load ptr, ptr %2, align 8, !tbaa !8
  %5 = icmp eq ptr %4, null
  br i1 %5, label %12, label %6

6:                                                ; preds = %1
  %7 = load ptr, ptr %2, align 8, !tbaa !8
  %8 = getelementptr inbounds nuw %struct.ossl_namemap_st, ptr %7, i32 0, i32 4
  %9 = load atomic i32, ptr %8 monotonic, align 8
  store i32 %9, ptr %3, align 4
  %10 = load i32, ptr %3, align 4, !tbaa !21
  %11 = icmp eq i32 %10, 0
  br label %12

12:                                               ; preds = %6, %1
  %13 = phi i1 [ true, %1 ], [ %11, %6 ]
  %14 = zext i1 %13 to i32
  ret i32 %14
}