; Function Attrs: mustprogress nofree norecurse nounwind willreturn memory(argmem: readwrite) uwtable
define range(i32 0, 2) i32 @ossl_namemap_empty(ptr noundef readonly captures(address_is_null) %0) local_unnamed_addr #2 {
  %2 = icmp eq ptr %0, null
  br i1 %2, label %8, label %3

3:                                                ; preds = %1
  %4 = getelementptr inbounds nuw i8, ptr %0, i64 32
  %5 = load atomic i32, ptr %4 monotonic, align 8
  %6 = icmp eq i32 %5, 0
  %7 = zext i1 %6 to i32
  br label %8

8:                                                ; preds = %3, %1
  %9 = phi i32 [ 1, %1 ], [ %7, %3 ]
  ret i32 %9
}